; Function Attrs: mustprogress nofree norecurse nosync nounwind willreturn memory(read, inaccessiblemem: none) uwtable
define hidden noundef zeroext i1 @_ZN4cvc58internal6theory6arrays6inListEPKNS_7context6CDListINS0_12NodeTemplateILb0EEENS3_14DefaultCleanUpIS6_EESaIS6_EEES6_(ptr noundef readonly captures(none) %0, ptr noundef readonly captures(none) %1) local_unnamed_addr #11 {
  %3 = getelementptr inbounds nuw i8, ptr %0, i64 40
  %4 = load ptr, ptr %3, align 8, !tbaa !124
  %5 = getelementptr inbounds nuw i8, ptr %0, i64 48
  %6 = load ptr, ptr %5, align 8, !tbaa !124
  %.not = icmp eq ptr %4, %6
  br i1 %.not, label %._crit_edge, label %.lr.ph

.lr.ph:                                           ; preds = %2
  %7 = load ptr, ptr %1, align 8, !tbaa !31
  br label %8

8:                                                ; preds = %8, %.lr.ph
  %.sroa.03.06 = phi ptr [ %4, %.lr.ph ], [ %11, %8 ]
  %9 = load ptr, ptr %.sroa.03.06, align 8, !tbaa !31
  %10 = icmp eq ptr %9, %7
  %11 = getelementptr inbounds nuw i8, ptr %.sroa.03.06, i64 8
  %.not9 = icmp eq ptr %11, %6
  %or.cond = select i1 %10, i1 true, i1 %.not9
  br i1 %or.cond, label %._crit_edge, label %8, !llvm.loop !125

._crit_edge:                                      ; preds = %8, %2
  %.lcssa = phi i1 [ false, %2 ], [ %10, %8 ]
  ret i1 %.lcssa
}